target datalayout = "e-m:e-p270:32:32-p271:32:32-p272:64:64-i64:64-i128:128-f80:128-n8:16:32:64-S128"
target triple = "x86_64-pc-linux-gnu"

@.str = private unnamed_addr constant [26 x i8] c"../openssl/crypto/o_str.c\00", align 1
@__func__.ossl_hexstr2buf_sep = private unnamed_addr constant [20 x i8] c"ossl_hexstr2buf_sep\00", align 1

; Function Attrs: nounwind uwtable
define ptr @ossl_hexstr2buf_sep(ptr noundef %0, ptr noundef %1, i8 noundef signext %2) #0 {
  %4 = alloca ptr, align 8
  %5 = alloca ptr, align 8
  %6 = alloca ptr, align 8
  %7 = alloca i8, align 1
  %8 = alloca ptr, align 8
  %9 = alloca i64, align 8
  %10 = alloca i64, align 8
  %11 = alloca i32, align 4
  store ptr %0, ptr %5, align 8, !tbaa !3
  store ptr %1, ptr %6, align 8, !tbaa !20
  store i8 %2, ptr %7, align 1, !tbaa !12
  call void @llvm.lifetime.start.p0(i64 8, ptr %8) #8
  call void @llvm.lifetime.start.p0(i64 8, ptr %9) #8
  call void @llvm.lifetime.start.p0(i64 8, ptr %10) #8
  %12 = load ptr, ptr %5, align 8, !tbaa !3
  %13 = call i64 @strlen(ptr noundef %12) #9
  store i64 %13, ptr %9, align 8, !tbaa !10
  %14 = load i64, ptr %9, align 8, !tbaa !10
  %15 = icmp ule i64 %14, 1
  br i1 %15, label %16, label %17

16:                                               ; preds = %3
  call void @ERR_new()
  call void @ERR_set_debug(ptr noundef @.str, i32 noundef 262, ptr noundef @__func__.ossl_hexstr2buf_sep)
  call void (i32, i32, ptr, ...) @ERR_set_error(i32 noundef 15, i32 noundef 121, ptr noundef null)
  store ptr null, ptr %4, align 8
  store i32 1, ptr %11, align 4
  br label %46

17:                                               ; preds = %3
  %18 = load i64, ptr %9, align 8, !tbaa !10
  %19 = udiv i64 %18, 2
  store i64 %19, ptr %9, align 8, !tbaa !10
  %20 = load i64, ptr %9, align 8, !tbaa !10
  %21 = call noalias ptr @CRYPTO_malloc(i64 noundef %20, ptr noundef @.str, i32 noundef 266)
  store ptr %21, ptr %8, align 8, !tbaa !3
  %22 = icmp eq ptr %21, null
  br i1 %22, label %23, label %24

23:                                               ; preds = %17
  store ptr null, ptr %4, align 8
  store i32 1, ptr %11, align 4
  br label %46

24:                                               ; preds = %17
  %25 = load ptr, ptr %6, align 8, !tbaa !20
  %26 = icmp ne ptr %25, null
  br i1 %26, label %27, label %29

27:                                               ; preds = %24
  %28 = load ptr, ptr %6, align 8, !tbaa !20
  store i64 0, ptr %28, align 8, !tbaa !10
  br label %29

29:                                               ; preds = %27, %24
  store i64 0, ptr %10, align 8, !tbaa !10
  %30 = load ptr, ptr %8, align 8, !tbaa !3
  %31 = load i64, ptr %9, align 8, !tbaa !10
  %32 = load ptr, ptr %5, align 8, !tbaa !3
  %33 = load i8, ptr %7, align 1, !tbaa !12
  %34 = call i32 @hexstr2buf_sep(ptr noundef %30, i64 noundef %31, ptr noundef %10, ptr noundef %32, i8 noundef signext %33)
  %35 = icmp ne i32 %34, 0
  br i1 %35, label %36, label %44

36:                                               ; preds = %29
  %37 = load ptr, ptr %6, align 8, !tbaa !20
  %38 = icmp ne ptr %37, null
  br i1 %38, label %39, label %42

39:                                               ; preds = %36
  %40 = load i64, ptr %10, align 8, !tbaa !10
  %41 = load ptr, ptr %6, align 8, !tbaa !20
  store i64 %40, ptr %41, align 8, !tbaa !10
  br label %42

42:                                               ; preds = %39, %36
  %43 = load ptr, ptr %8, align 8, !tbaa !3
  store ptr %43, ptr %4, align 8
  store i32 1, ptr %11, align 4
  br label %46

44:                                               ; preds = %29
  %45 = load ptr, ptr %8, align 8, !tbaa !3
  call void @CRYPTO_free(ptr noundef %45, ptr noundef @.str, i32 noundef 277)
  store ptr null, ptr %4, align 8
  store i32 1, ptr %11, align 4
  br label %46

46:                                               ; preds = %44, %42, %23, %16
  call void @llvm.lifetime.end.p0(i64 8, ptr %10) #8
  call void @llvm.lifetime.end.p0(i64 8, ptr %9) #8
  call void @llvm.lifetime.end.p0(i64 8, ptr %8) #8
  %47 = load ptr, ptr %4, align 8
  ret ptr %47
}