; Function Attrs: nounwind uwtable
define ptr @ossl_hexstr2buf_sep(ptr noundef readonly captures(none) %0, ptr noundef writeonly captures(address_is_null) %1, i8 noundef signext %2) local_unnamed_addr #0 {
  %4 = alloca i64, align 8
  call void @llvm.lifetime.start.p0(i64 8, ptr nonnull %4) #16
  %5 = tail call i64 @strlen(ptr noundef nonnull dereferenceable(1) %0) #15
  %6 = icmp ult i64 %5, 2
  br i1 %6, label %7, label %8

7:                                                ; preds = %3
  tail call void @ERR_new() #16
  tail call void @ERR_set_debug(ptr noundef nonnull @.str, i32 noundef 262, ptr noundef nonnull @__func__.ossl_hexstr2buf_sep) #16
  tail call void (i32, i32, ptr, ...) @ERR_set_error(i32 noundef 15, i32 noundef 121, ptr noundef null) #16
  br label %19

8:                                                ; preds = %3
  %9 = lshr i64 %5, 1
  %10 = tail call noalias ptr @CRYPTO_malloc(i64 noundef %9, ptr noundef nonnull @.str, i32 noundef 266) #16
  %11 = icmp eq ptr %10, null
  br i1 %11, label %19, label %12

12:                                               ; preds = %8
  %.not = icmp eq ptr %1, null
  br i1 %.not, label %13, label %.thread

13:                                               ; preds = %12
  store i64 0, ptr %4, align 8, !tbaa !15
  %14 = call fastcc i32 @hexstr2buf_sep(ptr noundef nonnull %10, i64 noundef %9, ptr noundef nonnull %4, ptr noundef nonnull %0, i8 noundef signext %2)
  %.not17 = icmp eq i32 %14, 0
  br i1 %.not17, label %18, label %19

.thread:                                          ; preds = %12
  store i64 0, ptr %1, align 8, !tbaa !15
  store i64 0, ptr %4, align 8, !tbaa !15
  %15 = call fastcc i32 @hexstr2buf_sep(ptr noundef nonnull %10, i64 noundef %9, ptr noundef nonnull %4, ptr noundef nonnull %0, i8 noundef signext %2)
  %.not1718 = icmp eq i32 %15, 0
  br i1 %.not1718, label %18, label %16

16:                                               ; preds = %.thread
  %17 = load i64, ptr %4, align 8, !tbaa !15
  store i64 %17, ptr %1, align 8, !tbaa !15
  br label %19

18:                                               ; preds = %.thread, %13
  call void @CRYPTO_free(ptr noundef nonnull %10, ptr noundef nonnull @.str, i32 noundef 277) #16
  br label %19

19:                                               ; preds = %13, %16, %8, %18, %7
  %.0 = phi ptr [ null, %7 ], [ null, %18 ], [ null, %8 ], [ %10, %16 ], [ %10, %13 ]
  call void @llvm.lifetime.end.p0(i64 8, ptr nonnull %4) #16
  ret ptr %.0
}